(lp0
(dp1
S'date'
p2
S'31-Jan-09'
p3
sS'startdate'
p4
S'01-Jan-09'
p5
sS'DebitCredit'
p6
F0.0
sS'Loans'
p7
F0.0
sa(dp8
g2
S'28-Feb-09'
p9
sg4
S'01-Feb-09'
p10
sg6
F0.0
sg7
F0.0
sa(dp11
g2
S'31-Mar-09'
p12
sg4
S'01-Mar-09'
p13
sg6
F0.0
sg7
F0.0
sa(dp14
g2
S'30-Apr-09'
p15
sg4
S'01-Apr-09'
p16
sg6
F0.0
sg7
F0.0
sa(dp17
g2
S'31-May-09'
p18
sg4
S'01-May-09'
p19
sg6
F0.0
sg7
F119.0
sa(dp20
g2
S'30-Jun-09'
p21
sg4
S'01-Jun-09'
p22
sg6
F0.0
sg7
F360.0
sa(dp23
g2
S'31-Jul-09'
p24
sg4
S'01-Jul-09'
p25
sg6
F0.0
sg7
F377.0
sa(dp26
g2
S'31-Aug-09'
p27
sg4
S'01-Aug-09'
p28
sg6
F28440.36
sg7
F278.0
sa(dp29
g2
S'30-Sep-09'
p30
sg4
S'01-Sep-09'
p31
sg6
F38836.7
sg7
F362.0
sa(dp32
g2
S'31-Oct-09'
p33
sg4
S'01-Oct-09'
p34
sg6
F32960.42
sg7
F84.0
sa(dp35
g2
S'30-Nov-09'
p36
sg4
S'01-Nov-09'
p37
sg6
F0.0
sg7
F0.0
sa(dp38
g2
S'31-Dec-09'
p39
sg4
S'01-Dec-09'
p40
sg6
F0.0
sg7
F1336.0
sa.