(lp0
(dp1
S'date'
p2
S'31-Jan-09'
p3
sS'startdate'
p4
S'01-Jan-09'
p5
sS'DebitCredit'
p6
F0.0
sS'Loans'
p7
F0.0
sa(dp8
g2
S'28-Feb-09'
p9
sg4
S'01-Feb-09'
p10
sg6
F0.0
sg7
F0.0
sa(dp11
g2
S'31-Mar-09'
p12
sg4
S'01-Mar-09'
p13
sg6
F0.0
sg7
F0.0
sa(dp14
g2
S'30-Apr-09'
p15
sg4
S'01-Apr-09'
p16
sg6
F0.0
sg7
F0.0
sa(dp17
g2
S'31-May-09'
p18
sg4
S'01-May-09'
p19
sg6
F0.0
sg7
F119.0
sa(dp20
g2
S'30-Jun-09'
p21
sg4
S'01-Jun-09'
p22
sg6
F0.0
sg7
F360.0
sa(dp23
g2
S'31-Jul-09'
p24
sg4
S'01-Jul-09'
p25
sg6
F0.0
sg7
F377.0
sa(dp26
g2
S'31-Aug-09'
p27
sg4
S'01-Aug-09'
p28
sg6
F28440.36
sg7
F278.0
sa(dp29
g2
S'30-Sep-09'
p30
sg4
S'01-Sep-09'
p31
sg6
F38836.7
sg7
F362.0
sa(dp32
g2
S'31-Oct-09'
p33
sg4
S'01-Oct-09'
p34
sg6
F32960.42
sg7
F84.0
sa(dp35
g2
S'30-Nov-09'
p36
sg4
S'01-Nov-09'
p37
sg6
F0.0
sg7
F0.0
sa(dp38
g2
S'31-Dec-09'
p39
sg4
S'01-Dec-09'
p40
sg6
F0.0
sg7
F1336.0
sa(dp41
g2
S'31-Jan-10'
p42
sg4
S'01-Jan-10'
p43
sg6
F1339.61
sg7
F1563.0
sa(dp44
g2
S'28-Feb-10'
p45
sg4
S'01-Feb-10'
p46
sg6
F0.0
sg7
F2304.0
sa(dp47
g2
S'31-Mar-10'
p48
sg4
S'01-Mar-10'
p49
sg6
F0.0
sg7
F2860.0
sa(dp50
g2
S'30-Apr-10'
p51
sg4
S'01-Apr-10'
p52
sg6
F83030.69
sg7
F2697.0
sa(dp53
g2
S'31-May-10'
p54
sg4
S'01-May-10'
p55
sg6
F53841.02
sg7
F3371.0
sa(dp56
g2
S'30-Jun-10'
p57
sg4
S'01-Jun-10'
p58
sg6
F0.0
sg7
F6362.0
sa(dp59
g2
S'31-Jul-10'
p60
sg4
S'01-Jul-10'
p61
sg6
F71778.9
sg7
F5507.0
sa(dp62
g2
S'31-Aug-10'
p63
sg4
S'01-Aug-10'
p64
sg6
F603589.99
sg7
F4025.0
sa(dp65
g2
S'30-Sep-10'
p66
sg4
S'01-Sep-10'
p67
sg6
F209377.9
sg7
F6943.0
sa(dp68
g2
S'31-Oct-10'
p69
sg4
S'01-Oct-10'
p70
sg6
F810790.26
sg7
F4607.0
sa(dp71
g2
S'30-Nov-10'
p72
sg4
S'01-Nov-10'
p73
sg6
F89979.34
sg7
F7768.0
sa(dp74
g2
S'31-Dec-10'
p75
sg4
S'01-Dec-10'
p76
sg6
F0.0
sg7
F9117.0
sa(dp77
g2
S'31-Jan-11'
p78
sg4
S'01-Jan-11'
p79
sg6
F362689.77
sg7
F9225.0
sa(dp80
g2
S'28-Feb-11'
p81
sg4
S'01-Feb-11'
p82
sg6
F793859.41
sg7
F7959.0
sa(dp83
g2
S'31-Mar-11'
p84
sg4
S'01-Mar-11'
p85
sg6
F970009.56
sg7
F8657.0
sa(dp86
g2
S'30-Apr-11'
p87
sg4
S'01-Apr-11'
p88
sg6
F935287.6
sg7
F8476.0
sa(dp89
g2
S'31-May-11'
p90
sg4
S'01-May-11'
p91
sg6
F386013.74
sg7
F11459.0
sa(dp92
g2
S'30-Jun-11'
p93
sg4
S'01-Jun-11'
p94
sg6
F357217.19
sg7
F13954.0
sa(dp95
g2
S'31-Jul-11'
p96
sg4
S'01-Jul-11'
p97
sg6
F699232.76
sg7
F14819.0
sa(dp98
g2
S'31-Aug-11'
p99
sg4
S'01-Aug-11'
p100
sg6
F635771.74
sg7
F17308.0
sa(dp101
g2
S'30-Sep-11'
p102
sg4
S'01-Sep-11'
p103
sg6
F1540377.35
sg7
F17741.0
sa(dp104
g2
S'31-Oct-11'
p105
sg4
S'01-Oct-11'
p106
sg6
F3136696.71
sg7
F15654.0
sa(dp107
g2
S'30-Nov-11'
p108
sg4
S'01-Nov-11'
p109
sg6
F2431624.89
sg7
F10955.0
sa(dp110
g2
S'31-Dec-11'
p111
sg4
S'01-Dec-11'
p112
sg6
F1545160.89
sg7
F14018.0
sa(dp113
g2
S'31-Jan-12'
p114
sg4
S'01-Jan-12'
p115
sg6
F1606995.66
sg7
F14258.0
sa(dp116
g2
S'29-Feb-12'
p117
sg4
S'01-Feb-12'
p118
sg6
F1521251.7
sg7
F14583.0
sa(dp119
g2
S'31-Mar-12'
p120
sg4
S'01-Mar-12'
p121
sg6
F1622286.57
sg7
F15552.0
sa(dp122
g2
S'30-Apr-12'
p123
sg4
S'01-Apr-12'
p124
sg6
F1469223.15
sg7
F13348.0
sa(dp125
g2
S'31-May-12'
p126
sg4
S'01-May-12'
p127
sg6
F491815.57
sg7
F19389.0
sa(dp128
g2
S'30-Jun-12'
p129
sg4
S'01-Jun-12'
p130
sg6
F773832.95
sg7
F102190.0
sa(dp131
g2
S'31-Jul-12'
p132
sg4
S'01-Jul-12'
p133
sg6
F953637.4
sg7
F35477.0
sa(dp134
g2
S'31-Aug-12'
p135
sg4
S'01-Aug-12'
p136
sg6
F1587689.85
sg7
F29838.0
sa(dp137
g2
S'30-Sep-12'
p138
sg4
S'01-Sep-12'
p139
sg6
F2063473.93
sg7
F32966.0
sa(dp140
g2
S'31-Oct-12'
p141
sg4
S'01-Oct-12'
p142
sg6
F2200313.57
sg7
F29191.0
sa(dp143
g2
S'30-Nov-12'
p144
sg4
S'01-Nov-12'
p145
sg6
F2528698.39
sg7
F28417.0
sa(dp146
g2
S'31-Dec-12'
p147
sg4
S'01-Dec-12'
p148
sg6
F1438451.92
sg7
F29721.0
sa.