(lp0
(dp1
S'date'
p2
S'31-Jan-09'
p3
sS'startdate'
p4
S'01-Jan-09'
p5
sS'Loans'
p6
F0.0
sa(dp7
g2
S'28-Feb-09'
p8
sg4
S'01-Feb-09'
p9
sg6
F0.0
sa(dp10
g2
S'31-Mar-09'
p11
sg4
S'01-Mar-09'
p12
sg6
F0.0
sa(dp13
g2
S'30-Apr-09'
p14
sg4
S'01-Apr-09'
p15
sg6
F0.0
sa(dp16
g2
S'31-May-09'
p17
sg4
S'01-May-09'
p18
sg6
F119.0
sa(dp19
g2
S'30-Jun-09'
p20
sg4
S'01-Jun-09'
p21
sg6
F360.0
sa(dp22
g2
S'31-Jul-09'
p23
sg4
S'01-Jul-09'
p24
sg6
F377.0
sa(dp25
g2
S'31-Aug-09'
p26
sg4
S'01-Aug-09'
p27
sg6
F278.0
sa(dp28
g2
S'30-Sep-09'
p29
sg4
S'01-Sep-09'
p30
sg6
F362.0
sa(dp31
g2
S'31-Oct-09'
p32
sg4
S'01-Oct-09'
p33
sg6
F84.0
sa(dp34
g2
S'30-Nov-09'
p35
sg4
S'01-Nov-09'
p36
sg6
F0.0
sa(dp37
g2
S'31-Dec-09'
p38
sg4
S'01-Dec-09'
p39
sg6
F1336.0
sa(dp40
g2
S'31-Jan-10'
p41
sg4
S'01-Jan-10'
p42
sg6
F1563.0
sa(dp43
g2
S'28-Feb-10'
p44
sg4
S'01-Feb-10'
p45
sg6
F2304.0
sa(dp46
g2
S'31-Mar-10'
p47
sg4
S'01-Mar-10'
p48
sg6
F2860.0
sa(dp49
g2
S'30-Apr-10'
p50
sg4
S'01-Apr-10'
p51
sg6
F2697.0
sa(dp52
g2
S'31-May-10'
p53
sg4
S'01-May-10'
p54
sg6
F3371.0
sa(dp55
g2
S'30-Jun-10'
p56
sg4
S'01-Jun-10'
p57
sg6
F6362.0
sa(dp58
g2
S'31-Jul-10'
p59
sg4
S'01-Jul-10'
p60
sg6
F5507.0
sa(dp61
g2
S'31-Aug-10'
p62
sg4
S'01-Aug-10'
p63
sg6
F4025.0
sa(dp64
g2
S'30-Sep-10'
p65
sg4
S'01-Sep-10'
p66
sg6
F6943.0
sa(dp67
g2
S'31-Oct-10'
p68
sg4
S'01-Oct-10'
p69
sg6
F4607.0
sa(dp70
g2
S'30-Nov-10'
p71
sg4
S'01-Nov-10'
p72
sg6
F7768.0
sa(dp73
g2
S'31-Dec-10'
p74
sg4
S'01-Dec-10'
p75
sg6
F9117.0
sa(dp76
g2
S'31-Jan-11'
p77
sg4
S'01-Jan-11'
p78
sg6
F9225.0
sa(dp79
g2
S'28-Feb-11'
p80
sg4
S'01-Feb-11'
p81
sg6
F7959.0
sa(dp82
g2
S'31-Mar-11'
p83
sg4
S'01-Mar-11'
p84
sg6
F8657.0
sa(dp85
g2
S'30-Apr-11'
p86
sg4
S'01-Apr-11'
p87
sg6
F8476.0
sa(dp88
g2
S'31-May-11'
p89
sg4
S'01-May-11'
p90
sg6
F11459.0
sa(dp91
g2
S'30-Jun-11'
p92
sg4
S'01-Jun-11'
p93
sg6
F13954.0
sa(dp94
g2
S'31-Jul-11'
p95
sg4
S'01-Jul-11'
p96
sg6
F14819.0
sa(dp97
g2
S'31-Aug-11'
p98
sg4
S'01-Aug-11'
p99
sg6
F17308.0
sa(dp100
g2
S'30-Sep-11'
p101
sg4
S'01-Sep-11'
p102
sg6
F17741.0
sa(dp103
g2
S'31-Oct-11'
p104
sg4
S'01-Oct-11'
p105
sg6
F15654.0
sa(dp106
g2
S'30-Nov-11'
p107
sg4
S'01-Nov-11'
p108
sg6
F10955.0
sa(dp109
g2
S'31-Dec-11'
p110
sg4
S'01-Dec-11'
p111
sg6
F14018.0
sa(dp112
g2
S'31-Jan-12'
p113
sg4
S'01-Jan-12'
p114
sg6
F14258.0
sa(dp115
g2
S'29-Feb-12'
p116
sg4
S'01-Feb-12'
p117
sg6
F14583.0
sa(dp118
g2
S'31-Mar-12'
p119
sg4
S'01-Mar-12'
p120
sg6
F15552.0
sa(dp121
g2
S'30-Apr-12'
p122
sg4
S'01-Apr-12'
p123
sg6
F13348.0
sa(dp124
g2
S'31-May-12'
p125
sg4
S'01-May-12'
p126
sg6
F19389.0
sa(dp127
g2
S'30-Jun-12'
p128
sg4
S'01-Jun-12'
p129
sg6
F102190.0
sa(dp130
g2
S'31-Jul-12'
p131
sg4
S'01-Jul-12'
p132
sg6
F35477.0
sa(dp133
g2
S'31-Aug-12'
p134
sg4
S'01-Aug-12'
p135
sg6
F29838.0
sa(dp136
g2
S'30-Sep-12'
p137
sg4
S'01-Sep-12'
p138
sg6
F32966.0
sa(dp139
g2
S'31-Oct-12'
p140
sg4
S'01-Oct-12'
p141
sg6
F29191.0
sa(dp142
g2
S'30-Nov-12'
p143
sg4
S'01-Nov-12'
p144
sg6
F28417.0
sa(dp145
g2
S'31-Dec-12'
p146
sg4
S'01-Dec-12'
p147
sg6
F29721.0
sa(dp148
g2
S'31-Jan-13'
p149
sg4
S'01-Jan-13'
p150
sg6
F34022.0
sa(dp151
g2
S'28-Feb-13'
p152
sg4
S'01-Feb-13'
p153
sg6
F28699.0
sa(dp154
g2
S'31-Mar-13'
p155
sg4
S'01-Mar-13'
p156
sg6
F29823.0
sa(dp157
g2
S'30-Apr-13'
p158
sg4
S'01-Apr-13'
p159
sg6
F29381.0
sa(dp160
g2
S'31-May-13'
p161
sg4
S'01-May-13'
p162
sg6
F31534.0
sa(dp163
g2
S'30-Jun-13'
p164
sg4
S'01-Jun-13'
p165
sg6
F32269.0
sa(dp166
g2
S'31-Jul-13'
p167
sg4
S'01-Jul-13'
p168
sg6
F34880.0
sa(dp169
g2
S'31-Aug-13'
p170
sg4
S'01-Aug-13'
p171
sg6
F33905.0
sa(dp172
g2
S'30-Sep-13'
p173
sg4
S'01-Sep-13'
p174
sg6
F34739.0
sa(dp175
g2
S'31-Oct-13'
p176
sg4
S'01-Oct-13'
p177
sg6
F32227.0
sa(dp178
g2
S'30-Nov-13'
p179
sg4
S'01-Nov-13'
p180
sg6
F30140.0
sa(dp181
g2
S'31-Dec-13'
p182
sg4
S'01-Dec-13'
p183
sg6
F28895.0
sa(dp184
g2
S'31-Jan-14'
p185
sg4
S'01-Jan-14'
p186
sg6
F28779.0
sa(dp187
g2
S'28-Feb-14'
p188
sg4
S'01-Feb-14'
p189
sg6
F25778.0
sa(dp190
g2
S'31-Mar-14'
p191
sg4
S'01-Mar-14'
p192
sg6
F26566.0
sa(dp193
g2
S'30-Apr-14'
p194
sg4
S'01-Apr-14'
p195
sg6
F27409.0
sa(dp196
g2
S'31-May-14'
p197
sg4
S'01-May-14'
p198
sg6
F30319.0
sa(dp199
g2
S'30-Jun-14'
p200
sg4
S'01-Jun-14'
p201
sg6
F26638.0
sa(dp202
g2
S'31-Jul-14'
p203
sg4
S'01-Jul-14'
p204
sg6
F23555.0
sa(dp205
g2
S'31-Aug-14'
p206
sg4
S'01-Aug-14'
p207
sg6
F25442.0
sa(dp208
g2
S'30-Sep-14'
p209
sg4
S'01-Sep-14'
p210
sg6
F21266.0
sa(dp211
g2
S'31-Oct-14'
p212
sg4
S'01-Oct-14'
p213
sg6
F18186.0
sa(dp214
g2
S'30-Nov-14'
p215
sg4
S'01-Nov-14'
p216
sg6
F15720.0
sa(dp217
g2
S'31-Dec-14'
p218
sg4
S'01-Dec-14'
p219
sg6
F13687.0
sa.