(lp0
(dp1
S'date'
p2
S'31-Jan-09'
p3
sS'startdate'
p4
S'01-Jan-09'
p5
sS'Loans'
p6
F0.0
sa(dp7
g2
S'28-Feb-09'
p8
sg4
S'01-Feb-09'
p9
sg6
F0.0
sa(dp10
g2
S'31-Mar-09'
p11
sg4
S'01-Mar-09'
p12
sg6
F0.0
sa(dp13
g2
S'30-Apr-09'
p14
sg4
S'01-Apr-09'
p15
sg6
F0.0
sa(dp16
g2
S'31-May-09'
p17
sg4
S'01-May-09'
p18
sg6
F119.0
sa(dp19
g2
S'30-Jun-09'
p20
sg4
S'01-Jun-09'
p21
sg6
F360.0
sa(dp22
g2
S'31-Jul-09'
p23
sg4
S'01-Jul-09'
p24
sg6
F377.0
sa(dp25
g2
S'31-Aug-09'
p26
sg4
S'01-Aug-09'
p27
sg6
F278.0
sa(dp28
g2
S'30-Sep-09'
p29
sg4
S'01-Sep-09'
p30
sg6
F362.0
sa(dp31
g2
S'31-Oct-09'
p32
sg4
S'01-Oct-09'
p33
sg6
F84.0
sa(dp34
g2
S'30-Nov-09'
p35
sg4
S'01-Nov-09'
p36
sg6
F0.0
sa(dp37
g2
S'31-Dec-09'
p38
sg4
S'01-Dec-09'
p39
sg6
F1336.0
sa.