(lp0
(dp1
S'date'
p2
S'31-Jan-09'
p3
sS'startdate'
p4
S'01-Jan-09'
p5
sS'DebitCredit'
p6
F0.0
sS'Loans'
p7
F0.0
sa(dp8
g2
S'28-Feb-09'
p9
sg4
S'01-Feb-09'
p10
sg6
F0.0
sg7
F0.0
sa(dp11
g2
S'31-Mar-09'
p12
sg4
S'01-Mar-09'
p13
sg6
F0.0
sg7
F0.0
sa(dp14
g2
S'30-Apr-09'
p15
sg4
S'01-Apr-09'
p16
sg6
F0.0
sg7
F0.0
sa(dp17
g2
S'31-May-09'
p18
sg4
S'01-May-09'
p19
sg6
F0.0
sg7
F119.0
sa(dp20
g2
S'30-Jun-09'
p21
sg4
S'01-Jun-09'
p22
sg6
F0.0
sg7
F360.0
sa(dp23
g2
S'31-Jul-09'
p24
sg4
S'01-Jul-09'
p25
sg6
F0.0
sg7
F377.0
sa(dp26
g2
S'31-Aug-09'
p27
sg4
S'01-Aug-09'
p28
sg6
F28440.36
sg7
F278.0
sa(dp29
g2
S'30-Sep-09'
p30
sg4
S'01-Sep-09'
p31
sg6
F38836.7
sg7
F362.0
sa(dp32
g2
S'31-Oct-09'
p33
sg4
S'01-Oct-09'
p34
sg6
F32960.42
sg7
F84.0
sa(dp35
g2
S'30-Nov-09'
p36
sg4
S'01-Nov-09'
p37
sg6
F0.0
sg7
F0.0
sa(dp38
g2
S'31-Dec-09'
p39
sg4
S'01-Dec-09'
p40
sg6
F0.0
sg7
F1336.0
sa(dp41
g2
S'31-Jan-10'
p42
sg4
S'01-Jan-10'
p43
sg6
F1339.61
sg7
F1563.0
sa(dp44
g2
S'28-Feb-10'
p45
sg4
S'01-Feb-10'
p46
sg6
F0.0
sg7
F2304.0
sa(dp47
g2
S'31-Mar-10'
p48
sg4
S'01-Mar-10'
p49
sg6
F0.0
sg7
F2860.0
sa(dp50
g2
S'30-Apr-10'
p51
sg4
S'01-Apr-10'
p52
sg6
F83030.69
sg7
F2697.0
sa(dp53
g2
S'31-May-10'
p54
sg4
S'01-May-10'
p55
sg6
F53841.02
sg7
F3371.0
sa(dp56
g2
S'30-Jun-10'
p57
sg4
S'01-Jun-10'
p58
sg6
F0.0
sg7
F6362.0
sa(dp59
g2
S'31-Jul-10'
p60
sg4
S'01-Jul-10'
p61
sg6
F71778.9
sg7
F5507.0
sa(dp62
g2
S'31-Aug-10'
p63
sg4
S'01-Aug-10'
p64
sg6
F603589.99
sg7
F4025.0
sa(dp65
g2
S'30-Sep-10'
p66
sg4
S'01-Sep-10'
p67
sg6
F209377.9
sg7
F6943.0
sa(dp68
g2
S'31-Oct-10'
p69
sg4
S'01-Oct-10'
p70
sg6
F810790.26
sg7
F4607.0
sa(dp71
g2
S'30-Nov-10'
p72
sg4
S'01-Nov-10'
p73
sg6
F89979.34
sg7
F7768.0
sa(dp74
g2
S'31-Dec-10'
p75
sg4
S'01-Dec-10'
p76
sg6
F0.0
sg7
F9117.0
sa.