(lp0
(dp1
S'date'
p2
S'31-Jan-09'
p3
sS'startdate'
p4
S'01-Jan-09'
p5
sS'Loans'
p6
F0.0
sa(dp7
g2
S'28-Feb-09'
p8
sg4
S'01-Feb-09'
p9
sg6
F0.0
sa(dp10
g2
S'31-Mar-09'
p11
sg4
S'01-Mar-09'
p12
sg6
F0.0
sa(dp13
g2
S'30-Apr-09'
p14
sg4
S'01-Apr-09'
p15
sg6
F0.0
sa(dp16
g2
S'31-May-09'
p17
sg4
S'01-May-09'
p18
sg6
F119.0
sa(dp19
g2
S'30-Jun-09'
p20
sg4
S'01-Jun-09'
p21
sg6
F360.0
sa(dp22
g2
S'31-Jul-09'
p23
sg4
S'01-Jul-09'
p24
sg6
F377.0
sa(dp25
g2
S'31-Aug-09'
p26
sg4
S'01-Aug-09'
p27
sg6
F278.0
sa(dp28
g2
S'30-Sep-09'
p29
sg4
S'01-Sep-09'
p30
sg6
F362.0
sa(dp31
g2
S'31-Oct-09'
p32
sg4
S'01-Oct-09'
p33
sg6
F84.0
sa(dp34
g2
S'30-Nov-09'
p35
sg4
S'01-Nov-09'
p36
sg6
F0.0
sa(dp37
g2
S'31-Dec-09'
p38
sg4
S'01-Dec-09'
p39
sg6
F1336.0
sa(dp40
g2
S'31-Jan-10'
p41
sg4
S'01-Jan-10'
p42
sg6
F1563.0
sa(dp43
g2
S'28-Feb-10'
p44
sg4
S'01-Feb-10'
p45
sg6
F2304.0
sa(dp46
g2
S'31-Mar-10'
p47
sg4
S'01-Mar-10'
p48
sg6
F2860.0
sa(dp49
g2
S'30-Apr-10'
p50
sg4
S'01-Apr-10'
p51
sg6
F2697.0
sa(dp52
g2
S'31-May-10'
p53
sg4
S'01-May-10'
p54
sg6
F3371.0
sa(dp55
g2
S'30-Jun-10'
p56
sg4
S'01-Jun-10'
p57
sg6
F6362.0
sa(dp58
g2
S'31-Jul-10'
p59
sg4
S'01-Jul-10'
p60
sg6
F5507.0
sa(dp61
g2
S'31-Aug-10'
p62
sg4
S'01-Aug-10'
p63
sg6
F4025.0
sa(dp64
g2
S'30-Sep-10'
p65
sg4
S'01-Sep-10'
p66
sg6
F6943.0
sa(dp67
g2
S'31-Oct-10'
p68
sg4
S'01-Oct-10'
p69
sg6
F4607.0
sa(dp70
g2
S'30-Nov-10'
p71
sg4
S'01-Nov-10'
p72
sg6
F7768.0
sa(dp73
g2
S'31-Dec-10'
p74
sg4
S'01-Dec-10'
p75
sg6
F9117.0
sa(dp76
g2
S'31-Jan-11'
p77
sg4
S'01-Jan-11'
p78
sg6
F9225.0
sa(dp79
g2
S'28-Feb-11'
p80
sg4
S'01-Feb-11'
p81
sg6
F7959.0
sa(dp82
g2
S'31-Mar-11'
p83
sg4
S'01-Mar-11'
p84
sg6
F8657.0
sa(dp85
g2
S'30-Apr-11'
p86
sg4
S'01-Apr-11'
p87
sg6
F8476.0
sa(dp88
g2
S'31-May-11'
p89
sg4
S'01-May-11'
p90
sg6
F11459.0
sa(dp91
g2
S'30-Jun-11'
p92
sg4
S'01-Jun-11'
p93
sg6
F13954.0
sa(dp94
g2
S'31-Jul-11'
p95
sg4
S'01-Jul-11'
p96
sg6
F14819.0
sa(dp97
g2
S'31-Aug-11'
p98
sg4
S'01-Aug-11'
p99
sg6
F17308.0
sa(dp100
g2
S'30-Sep-11'
p101
sg4
S'01-Sep-11'
p102
sg6
F17741.0
sa(dp103
g2
S'31-Oct-11'
p104
sg4
S'01-Oct-11'
p105
sg6
F15654.0
sa(dp106
g2
S'30-Nov-11'
p107
sg4
S'01-Nov-11'
p108
sg6
F10955.0
sa(dp109
g2
S'31-Dec-11'
p110
sg4
S'01-Dec-11'
p111
sg6
F14018.0
sa.